target datalayout = "e-m:e-p270:32:32-p271:32:32-p272:64:64-i64:64-i128:128-f80:128-n8:16:32:64-S128"
target triple = "x86_64-pc-linux-gnu"

%"class.std::basic_string_view" = type { i64, ptr }
%"struct.nix::Value" = type { i32, %union.anon.35 }
%union.anon.35 = type { %"struct.nix::Value::StringWithContext" }
%"struct.nix::Value::StringWithContext" = type { ptr, ptr }

@.str.27 = private unnamed_addr constant [5 x i8] c"true\00", align 1
@.str.28 = private unnamed_addr constant [6 x i8] c"false\00", align 1

; Function Attrs: mustprogress nounwind uwtable
define linkonce_odr noundef i32 @_ZNSt17basic_string_viewIcSt11char_traitsIcEE10_S_compareEmm(i64 noundef %0, i64 noundef %1) #2 comdat align 2 {
  %3 = alloca i32, align 4
  %4 = alloca i64, align 8
  %5 = alloca i64, align 8
  %6 = alloca i64, align 8
  store i64 %0, ptr %4, align 8
  store i64 %1, ptr %5, align 8
  %7 = load i64, ptr %4, align 8
  %8 = load i64, ptr %5, align 8
  %9 = sub i64 %7, %8
  store i64 %9, ptr %6, align 8
  %10 = load i64, ptr %6, align 8
  %11 = icmp sgt i64 %10, 2147483647
  br i1 %11, label %12, label %13

12:                                               ; preds = %2
  store i32 2147483647, ptr %3, align 4
  br label %20

13:                                               ; preds = %2
  %14 = load i64, ptr %6, align 8
  %15 = icmp slt i64 %14, -2147483648
  br i1 %15, label %16, label %17

16:                                               ; preds = %13
  store i32 -2147483648, ptr %3, align 4
  br label %20

17:                                               ; preds = %13
  %18 = load i64, ptr %6, align 8
  %19 = trunc i64 %18 to i32
  store i32 %19, ptr %3, align 4
  br label %20

20:                                               ; preds = %17, %16, %12
  %21 = load i32, ptr %3, align 4
  ret i32 %21
}

; Function Attrs: mustprogress nounwind uwtable
define linkonce_odr noundef i32 @_ZNSt11char_traitsIcE7compareEPKcS2_m(ptr noundef %0, ptr noundef %1, i64 noundef %2) #2 comdat align 2 {
  %4 = alloca i32, align 4
  %5 = alloca ptr, align 8
  %6 = alloca ptr, align 8
  %7 = alloca i64, align 8
  store ptr %0, ptr %5, align 8
  store ptr %1, ptr %6, align 8
  store i64 %2, ptr %7, align 8
  %8 = load i64, ptr %7, align 8
  %9 = icmp eq i64 %8, 0
  br i1 %9, label %10, label %11

10:                                               ; preds = %3
  store i32 0, ptr %4, align 4
  br label %16

11:                                               ; preds = %3
  %12 = load ptr, ptr %5, align 8
  %13 = load ptr, ptr %6, align 8
  %14 = load i64, ptr %7, align 8
  %15 = call i32 @memcmp(ptr noundef %12, ptr noundef %13, i64 noundef %14) #1
  store i32 %15, ptr %4, align 4
  br label %16

16:                                               ; preds = %11, %10
  %17 = load i32, ptr %4, align 4
  ret i32 %17
}

; Function Attrs: mustprogress nounwind uwtable
define linkonce_odr noundef nonnull align 8 dereferenceable(8) ptr @_ZSt3minImERKT_S2_S2_(ptr noundef nonnull align 8 dereferenceable(8) %0, ptr noundef nonnull align 8 dereferenceable(8) %1) #2 comdat {
  %3 = alloca ptr, align 8
  %4 = alloca ptr, align 8
  %5 = alloca ptr, align 8
  store ptr %0, ptr %4, align 8
  store ptr %1, ptr %5, align 8
  %6 = load ptr, ptr %5, align 8
  %7 = load i64, ptr %6, align 8
  %8 = load ptr, ptr %4, align 8
  %9 = load i64, ptr %8, align 8
  %10 = icmp ult i64 %7, %9
  br i1 %10, label %11, label %13

11:                                               ; preds = %2
  %12 = load ptr, ptr %5, align 8
  store ptr %12, ptr %3, align 8
  br label %15

13:                                               ; preds = %2
  %14 = load ptr, ptr %4, align 8
  store ptr %14, ptr %3, align 8
  br label %15

15:                                               ; preds = %13, %11
  %16 = load ptr, ptr %3, align 8
  ret ptr %16
}

; Function Attrs: mustprogress nounwind uwtable
define linkonce_odr noundef i32 @_ZNKSt17basic_string_viewIcSt11char_traitsIcEE7compareES2_(ptr noundef nonnull align 8 dereferenceable(16) %0, i64 %1, ptr %2) #2 comdat align 2 {
  %4 = alloca %"class.std::basic_string_view", align 8
  %5 = alloca ptr, align 8
  %6 = alloca i64, align 8
  %7 = alloca i32, align 4
  %8 = getelementptr inbounds { i64, ptr }, ptr %4, i32 0, i32 0
  store i64 %1, ptr %8, align 8
  %9 = getelementptr inbounds { i64, ptr }, ptr %4, i32 0, i32 1
  store ptr %2, ptr %9, align 8
  store ptr %0, ptr %5, align 8
  %10 = load ptr, ptr %5, align 8
  %11 = getelementptr inbounds %"class.std::basic_string_view", ptr %10, i32 0, i32 0
  %12 = getelementptr inbounds %"class.std::basic_string_view", ptr %4, i32 0, i32 0
  %13 = call noundef nonnull align 8 dereferenceable(8) ptr @_ZSt3minImERKT_S2_S2_(ptr noundef nonnull align 8 dereferenceable(8) %11, ptr noundef nonnull align 8 dereferenceable(8) %12)
  %14 = load i64, ptr %13, align 8
  store i64 %14, ptr %6, align 8
  %15 = getelementptr inbounds %"class.std::basic_string_view", ptr %10, i32 0, i32 1
  %16 = load ptr, ptr %15, align 8
  %17 = getelementptr inbounds %"class.std::basic_string_view", ptr %4, i32 0, i32 1
  %18 = load ptr, ptr %17, align 8
  %19 = load i64, ptr %6, align 8
  %20 = call noundef i32 @_ZNSt11char_traitsIcE7compareEPKcS2_m(ptr noundef %16, ptr noundef %18, i64 noundef %19)
  store i32 %20, ptr %7, align 4
  %21 = load i32, ptr %7, align 4
  %22 = icmp eq i32 %21, 0
  br i1 %22, label %23, label %29

23:                                               ; preds = %3
  %24 = getelementptr inbounds %"class.std::basic_string_view", ptr %10, i32 0, i32 0
  %25 = load i64, ptr %24, align 8
  %26 = getelementptr inbounds %"class.std::basic_string_view", ptr %4, i32 0, i32 0
  %27 = load i64, ptr %26, align 8
  %28 = call noundef i32 @_ZNSt17basic_string_viewIcSt11char_traitsIcEE10_S_compareEmm(i64 noundef %25, i64 noundef %27) #1
  store i32 %28, ptr %7, align 4
  br label %29

29:                                               ; preds = %23, %3
  %30 = load i32, ptr %7, align 4
  ret i32 %30
}

; Function Attrs: mustprogress nounwind uwtable
define linkonce_odr noundef i64 @_ZNKSt17basic_string_viewIcSt11char_traitsIcEE4sizeEv(ptr noundef nonnull align 8 dereferenceable(16) %0) #2 comdat align 2 {
  %2 = alloca ptr, align 8
  store ptr %0, ptr %2, align 8
  %3 = load ptr, ptr %2, align 8
  %4 = getelementptr inbounds %"class.std::basic_string_view", ptr %3, i32 0, i32 0
  %5 = load i64, ptr %4, align 8
  ret i64 %5
}

; Function Attrs: mustprogress nounwind uwtable
define linkonce_odr noundef i64 @_ZNSt11char_traitsIcE6lengthEPKc(ptr noundef %0) #2 comdat align 2 {
  %2 = alloca ptr, align 8
  store ptr %0, ptr %2, align 8
  %3 = load ptr, ptr %2, align 8
  %4 = call i64 @strlen(ptr noundef %3) #1
  ret i64 %4
}

; Function Attrs: mustprogress nounwind uwtable
define linkonce_odr noundef zeroext i1 @_ZSteqIcSt11char_traitsIcEEbSt17basic_string_viewIT_T0_ENSt15__type_identityIS5_E4typeE(i64 %0, ptr %1, i64 %2, ptr %3) #2 comdat {
  %5 = alloca %"class.std::basic_string_view", align 8
  %6 = alloca %"class.std::basic_string_view", align 8
  %7 = alloca %"class.std::basic_string_view", align 8
  %8 = getelementptr inbounds { i64, ptr }, ptr %5, i32 0, i32 0
  store i64 %0, ptr %8, align 8
  %9 = getelementptr inbounds { i64, ptr }, ptr %5, i32 0, i32 1
  store ptr %1, ptr %9, align 8
  %10 = getelementptr inbounds { i64, ptr }, ptr %6, i32 0, i32 0
  store i64 %2, ptr %10, align 8
  %11 = getelementptr inbounds { i64, ptr }, ptr %6, i32 0, i32 1
  store ptr %3, ptr %11, align 8
  %12 = call noundef i64 @_ZNKSt17basic_string_viewIcSt11char_traitsIcEE4sizeEv(ptr noundef nonnull align 8 dereferenceable(16) %5) #1
  %13 = call noundef i64 @_ZNKSt17basic_string_viewIcSt11char_traitsIcEE4sizeEv(ptr noundef nonnull align 8 dereferenceable(16) %6) #1
  %14 = icmp eq i64 %12, %13
  br i1 %14, label %15, label %22

15:                                               ; preds = %4
  call void @llvm.memcpy.p0.p0.i64(ptr align 8 %7, ptr align 8 %6, i64 16, i1 false)
  %16 = getelementptr inbounds { i64, ptr }, ptr %7, i32 0, i32 0
  %17 = load i64, ptr %16, align 8
  %18 = getelementptr inbounds { i64, ptr }, ptr %7, i32 0, i32 1
  %19 = load ptr, ptr %18, align 8
  %20 = call noundef i32 @_ZNKSt17basic_string_viewIcSt11char_traitsIcEE7compareES2_(ptr noundef nonnull align 8 dereferenceable(16) %5, i64 %17, ptr %19) #1
  %21 = icmp eq i32 %20, 0
  br label %22

22:                                               ; preds = %15, %4
  %23 = phi i1 [ false, %4 ], [ %21, %15 ]
  ret i1 %23
}

; Function Attrs: mustprogress nounwind uwtable
define linkonce_odr void @_ZNSt17basic_string_viewIcSt11char_traitsIcEEC2EPKc(ptr noundef nonnull align 8 dereferenceable(16) %0, ptr noundef nonnull %1) unnamed_addr #2 comdat align 2 {
  %3 = alloca ptr, align 8
  %4 = alloca ptr, align 8
  store ptr %0, ptr %3, align 8
  store ptr %1, ptr %4, align 8
  %5 = load ptr, ptr %3, align 8
  %6 = getelementptr inbounds %"class.std::basic_string_view", ptr %5, i32 0, i32 0
  %7 = load ptr, ptr %4, align 8
  %8 = call noundef i64 @_ZNSt11char_traitsIcE6lengthEPKc(ptr noundef %7)
  store i64 %8, ptr %6, align 8
  %9 = getelementptr inbounds %"class.std::basic_string_view", ptr %5, i32 0, i32 1
  %10 = load ptr, ptr %4, align 8
  store ptr %10, ptr %9, align 8
  ret void
}

; Function Attrs: mustprogress nounwind uwtable
define linkonce_odr { i64, ptr } @_ZNK3nix5Value11string_viewEv(ptr noundef nonnull align 8 dereferenceable(24) %0) #2 comdat align 2 {
  %2 = alloca %"class.std::basic_string_view", align 8
  %3 = alloca ptr, align 8
  store ptr %0, ptr %3, align 8
  %4 = load ptr, ptr %3, align 8
  %5 = getelementptr inbounds %"struct.nix::Value", ptr %4, i32 0, i32 1
  %6 = getelementptr inbounds %"struct.nix::Value::StringWithContext", ptr %5, i32 0, i32 0
  %7 = load ptr, ptr %6, align 8
  call void @_ZNSt17basic_string_viewIcSt11char_traitsIcEEC2EPKc(ptr noundef nonnull align 8 dereferenceable(16) %2, ptr noundef %7) #1
  %8 = load { i64, ptr }, ptr %2, align 8
  ret { i64, ptr } %8
}

; Function Attrs: mustprogress nounwind uwtable
define linkonce_odr noundef i32 @_ZNK3nix5Value4typeEb(ptr noundef nonnull align 8 dereferenceable(24) %0, i1 noundef zeroext %1) #2 comdat align 2 {
  %3 = alloca i32, align 4
  %4 = alloca ptr, align 8
  %5 = alloca i8, align 1
  store ptr %0, ptr %4, align 8
  %6 = zext i1 %1 to i8
  store i8 %6, ptr %5, align 1
  %7 = load ptr, ptr %4, align 8
  %8 = getelementptr inbounds %"struct.nix::Value", ptr %7, i32 0, i32 0
  %9 = load i32, ptr %8, align 8
  switch i32 %9, label %21 [
    i32 1, label %10
    i32 2, label %11
    i32 3, label %12
    i32 4, label %13
    i32 5, label %14
    i32 6, label %15
    i32 7, label %16
    i32 8, label %16
    i32 9, label %16
    i32 12, label %17
    i32 13, label %17
    i32 14, label %17
    i32 15, label %18
    i32 16, label %19
    i32 10, label %20
    i32 11, label %20
  ]

10:                                               ; preds = %2
  store i32 1, ptr %3, align 4
  br label %26

11:                                               ; preds = %2
  store i32 3, ptr %3, align 4
  br label %26

12:                                               ; preds = %2
  store i32 4, ptr %3, align 4
  br label %26

13:                                               ; preds = %2
  store i32 5, ptr %3, align 4
  br label %26

14:                                               ; preds = %2
  store i32 6, ptr %3, align 4
  br label %26

15:                                               ; preds = %2
  store i32 7, ptr %3, align 4
  br label %26

16:                                               ; preds = %2, %2, %2
  store i32 8, ptr %3, align 4
  br label %26

17:                                               ; preds = %2, %2, %2
  store i32 9, ptr %3, align 4
  br label %26

18:                                               ; preds = %2
  store i32 10, ptr %3, align 4
  br label %26

19:                                               ; preds = %2
  store i32 2, ptr %3, align 4
  br label %26

20:                                               ; preds = %2, %2
  store i32 0, ptr %3, align 4
  br label %26

21:                                               ; preds = %2
  %22 = load i8, ptr %5, align 1
  %23 = trunc i8 %22 to i1
  br i1 %23, label %24, label %25

24:                                               ; preds = %21
  store i32 0, ptr %3, align 4
  br label %26

25:                                               ; preds = %21
  call void @abort() #22
  unreachable

26:                                               ; preds = %24, %20, %19, %18, %17, %16, %15, %14, %13, %12, %11, %10
  %27 = load i32, ptr %3, align 4
  ret i32 %27
}

; Function Attrs: mustprogress uwtable
define noundef zeroext i1 @_ZN3nix11PackageInfo13queryMetaBoolERKNSt7__cxx1112basic_stringIcSt11char_traitsIcESaIcEEEb(ptr noundef nonnull align 8 dereferenceable(296) %0, ptr noundef nonnull align 8 dereferenceable(32) %1, i1 noundef zeroext %2) #5 align 2 {
  %4 = alloca i1, align 1
  %5 = alloca ptr, align 8
  %6 = alloca ptr, align 8
  %7 = alloca i8, align 1
  %8 = alloca ptr, align 8
  %9 = alloca %"class.std::basic_string_view", align 8
  %10 = alloca %"class.std::basic_string_view", align 8
  %11 = alloca %"class.std::basic_string_view", align 8
  %12 = alloca %"class.std::basic_string_view", align 8
  store ptr %0, ptr %5, align 8
  store ptr %1, ptr %6, align 8
  %13 = zext i1 %2 to i8
  store i8 %13, ptr %7, align 1
  %14 = load ptr, ptr %5, align 8
  %15 = load ptr, ptr %6, align 8
  %16 = call noundef ptr @_ZN3nix11PackageInfo9queryMetaERKNSt7__cxx1112basic_stringIcSt11char_traitsIcESaIcEEE(ptr noundef nonnull align 8 dereferenceable(296) %14, ptr noundef nonnull align 8 dereferenceable(32) %15)
  store ptr %16, ptr %8, align 8
  %17 = load ptr, ptr %8, align 8
  %18 = icmp ne ptr %17, null
  br i1 %18, label %22, label %19

19:                                               ; preds = %3
  %20 = load i8, ptr %7, align 1
  %21 = trunc i8 %20 to i1
  store i1 %21, ptr %4, align 1
  br label %73

22:                                               ; preds = %3
  %23 = load ptr, ptr %8, align 8
  %24 = call noundef i32 @_ZNK3nix5Value4typeEb(ptr noundef nonnull align 8 dereferenceable(24) %23, i1 noundef zeroext false)
  %25 = icmp eq i32 %24, 3
  br i1 %25, label %26, label %31

26:                                               ; preds = %22
  %27 = load ptr, ptr %8, align 8
  %28 = getelementptr inbounds %"struct.nix::Value", ptr %27, i32 0, i32 1
  %29 = load i8, ptr %28, align 8
  %30 = trunc i8 %29 to i1
  store i1 %30, ptr %4, align 1
  br label %73

31:                                               ; preds = %22
  %32 = load ptr, ptr %8, align 8
  %33 = call noundef i32 @_ZNK3nix5Value4typeEb(ptr noundef nonnull align 8 dereferenceable(24) %32, i1 noundef zeroext false)
  %34 = icmp eq i32 %33, 4
  br i1 %34, label %35, label %70

35:                                               ; preds = %31
  %36 = load ptr, ptr %8, align 8
  %37 = call { i64, ptr } @_ZNK3nix5Value11string_viewEv(ptr noundef nonnull align 8 dereferenceable(24) %36)
  %38 = getelementptr inbounds { i64, ptr }, ptr %9, i32 0, i32 0
  %39 = extractvalue { i64, ptr } %37, 0
  store i64 %39, ptr %38, align 8
  %40 = getelementptr inbounds { i64, ptr }, ptr %9, i32 0, i32 1
  %41 = extractvalue { i64, ptr } %37, 1
  store ptr %41, ptr %40, align 8
  call void @_ZNSt17basic_string_viewIcSt11char_traitsIcEEC2EPKc(ptr noundef nonnull align 8 dereferenceable(16) %10, ptr noundef @.str.27) #1
  %42 = getelementptr inbounds { i64, ptr }, ptr %9, i32 0, i32 0
  %43 = load i64, ptr %42, align 8
  %44 = getelementptr inbounds { i64, ptr }, ptr %9, i32 0, i32 1
  %45 = load ptr, ptr %44, align 8
  %46 = getelementptr inbounds { i64, ptr }, ptr %10, i32 0, i32 0
  %47 = load i64, ptr %46, align 8
  %48 = getelementptr inbounds { i64, ptr }, ptr %10, i32 0, i32 1
  %49 = load ptr, ptr %48, align 8
  %50 = call noundef zeroext i1 @_ZSteqIcSt11char_traitsIcEEbSt17basic_string_viewIT_T0_ENSt15__type_identityIS5_E4typeE(i64 %43, ptr %45, i64 %47, ptr %49) #1
  br i1 %50, label %51, label %52

51:                                               ; preds = %35
  store i1 true, ptr %4, align 1
  br label %73

52:                                               ; preds = %35
  %53 = load ptr, ptr %8, align 8
  %54 = call { i64, ptr } @_ZNK3nix5Value11string_viewEv(ptr noundef nonnull align 8 dereferenceable(24) %53)
  %55 = getelementptr inbounds { i64, ptr }, ptr %11, i32 0, i32 0
  %56 = extractvalue { i64, ptr } %54, 0
  store i64 %56, ptr %55, align 8
  %57 = getelementptr inbounds { i64, ptr }, ptr %11, i32 0, i32 1
  %58 = extractvalue { i64, ptr } %54, 1
  store ptr %58, ptr %57, align 8
  call void @_ZNSt17basic_string_viewIcSt11char_traitsIcEEC2EPKc(ptr noundef nonnull align 8 dereferenceable(16) %12, ptr noundef @.str.28) #1
  %59 = getelementptr inbounds { i64, ptr }, ptr %11, i32 0, i32 0
  %60 = load i64, ptr %59, align 8
  %61 = getelementptr inbounds { i64, ptr }, ptr %11, i32 0, i32 1
  %62 = load ptr, ptr %61, align 8
  %63 = getelementptr inbounds { i64, ptr }, ptr %12, i32 0, i32 0
  %64 = load i64, ptr %63, align 8
  %65 = getelementptr inbounds { i64, ptr }, ptr %12, i32 0, i32 1
  %66 = load ptr, ptr %65, align 8
  %67 = call noundef zeroext i1 @_ZSteqIcSt11char_traitsIcEEbSt17basic_string_viewIT_T0_ENSt15__type_identityIS5_E4typeE(i64 %60, ptr %62, i64 %64, ptr %66) #1
  br i1 %67, label %68, label %69

68:                                               ; preds = %52
  store i1 false, ptr %4, align 1
  br label %73

69:                                               ; preds = %52
  br label %70

70:                                               ; preds = %69, %31
  %71 = load i8, ptr %7, align 1
  %72 = trunc i8 %71 to i1
  store i1 %72, ptr %4, align 1
  br label %73

73:                                               ; preds = %70, %68, %51, %26, %19
  %74 = load i1, ptr %4, align 1
  ret i1 %74
}