; Function Attrs: mustprogress uwtable
define noundef zeroext i1 @_ZN3nix11PackageInfo13queryMetaBoolERKNSt7__cxx1112basic_stringIcSt11char_traitsIcESaIcEEEb(ptr noundef nonnull align 8 dereferenceable(296) %0, ptr nocapture noundef nonnull readonly align 8 dereferenceable(32) %1, i1 noundef zeroext %2) local_unnamed_addr #5 align 2 {
  %4 = tail call noundef ptr @_ZN3nix11PackageInfo9queryMetaERKNSt7__cxx1112basic_stringIcSt11char_traitsIcESaIcEEE(ptr noundef nonnull align 8 dereferenceable(296) %0, ptr noundef nonnull align 8 dereferenceable(32) %1)
  %.not = icmp eq ptr %4, null
  br i1 %.not, label %_ZSteqIcSt11char_traitsIcEEbSt17basic_string_viewIT_T0_ENSt15__type_identityIS5_E4typeE.exit, label %5

5:                                                ; preds = %3
  %6 = load i32, ptr %4, align 8
  switch i32 %6, label %7 [
    i32 1, label %_ZSteqIcSt11char_traitsIcEEbSt17basic_string_viewIT_T0_ENSt15__type_identityIS5_E4typeE.exit
    i32 2, label %_ZNK3nix5Value4typeEb.exit
    i32 3, label %_ZNK3nix5Value4typeEb.exit14
    i32 4, label %_ZSteqIcSt11char_traitsIcEEbSt17basic_string_viewIT_T0_ENSt15__type_identityIS5_E4typeE.exit
    i32 5, label %_ZSteqIcSt11char_traitsIcEEbSt17basic_string_viewIT_T0_ENSt15__type_identityIS5_E4typeE.exit
    i32 6, label %_ZSteqIcSt11char_traitsIcEEbSt17basic_string_viewIT_T0_ENSt15__type_identityIS5_E4typeE.exit
    i32 16, label %_ZSteqIcSt11char_traitsIcEEbSt17basic_string_viewIT_T0_ENSt15__type_identityIS5_E4typeE.exit
    i32 15, label %_ZSteqIcSt11char_traitsIcEEbSt17basic_string_viewIT_T0_ENSt15__type_identityIS5_E4typeE.exit
    i32 11, label %_ZSteqIcSt11char_traitsIcEEbSt17basic_string_viewIT_T0_ENSt15__type_identityIS5_E4typeE.exit
    i32 10, label %_ZSteqIcSt11char_traitsIcEEbSt17basic_string_viewIT_T0_ENSt15__type_identityIS5_E4typeE.exit
    i32 14, label %_ZSteqIcSt11char_traitsIcEEbSt17basic_string_viewIT_T0_ENSt15__type_identityIS5_E4typeE.exit
    i32 13, label %_ZSteqIcSt11char_traitsIcEEbSt17basic_string_viewIT_T0_ENSt15__type_identityIS5_E4typeE.exit
    i32 12, label %_ZSteqIcSt11char_traitsIcEEbSt17basic_string_viewIT_T0_ENSt15__type_identityIS5_E4typeE.exit
    i32 9, label %_ZSteqIcSt11char_traitsIcEEbSt17basic_string_viewIT_T0_ENSt15__type_identityIS5_E4typeE.exit
    i32 7, label %_ZSteqIcSt11char_traitsIcEEbSt17basic_string_viewIT_T0_ENSt15__type_identityIS5_E4typeE.exit
    i32 8, label %_ZSteqIcSt11char_traitsIcEEbSt17basic_string_viewIT_T0_ENSt15__type_identityIS5_E4typeE.exit
  ]

7:                                                ; preds = %5
  tail call void @abort() #31
  unreachable

_ZNK3nix5Value4typeEb.exit:                       ; preds = %5
  %8 = getelementptr inbounds i8, ptr %4, i64 8
  %9 = load i8, ptr %8, align 8
  %10 = and i8 %9, 1
  %11 = icmp ne i8 %10, 0
  br label %_ZSteqIcSt11char_traitsIcEEbSt17basic_string_viewIT_T0_ENSt15__type_identityIS5_E4typeE.exit

_ZNK3nix5Value4typeEb.exit14:                     ; preds = %5
  %12 = getelementptr inbounds i8, ptr %4, i64 8
  %13 = load ptr, ptr %12, align 8
  %14 = tail call noundef i64 @strlen(ptr noundef nonnull dereferenceable(1) %13) #28
  switch i64 %14, label %_ZSteqIcSt11char_traitsIcEEbSt17basic_string_viewIT_T0_ENSt15__type_identityIS5_E4typeE.exit20.thread [
    i64 4, label %_ZNSt11char_traitsIcE7compareEPKcS2_m.exit.i.i
    i64 5, label %_ZNSt11char_traitsIcE7compareEPKcS2_m.exit.i.i17
  ]

_ZNSt11char_traitsIcE7compareEPKcS2_m.exit.i.i:   ; preds = %_ZNK3nix5Value4typeEb.exit14
  %bcmp.i = tail call i32 @bcmp(ptr noundef nonnull dereferenceable(4) %13, ptr noundef nonnull dereferenceable(4) @.str.27, i64 4)
  %15 = icmp eq i32 %bcmp.i, 0
  br i1 %15, label %_ZSteqIcSt11char_traitsIcEEbSt17basic_string_viewIT_T0_ENSt15__type_identityIS5_E4typeE.exit, label %_ZSteqIcSt11char_traitsIcEEbSt17basic_string_viewIT_T0_ENSt15__type_identityIS5_E4typeE.exit20.thread

_ZNSt11char_traitsIcE7compareEPKcS2_m.exit.i.i17: ; preds = %_ZNK3nix5Value4typeEb.exit14
  %bcmp.i18 = tail call i32 @bcmp(ptr noundef nonnull dereferenceable(5) %13, ptr noundef nonnull dereferenceable(5) @.str.28, i64 5)
  %16 = icmp eq i32 %bcmp.i18, 0
  br i1 %16, label %_ZSteqIcSt11char_traitsIcEEbSt17basic_string_viewIT_T0_ENSt15__type_identityIS5_E4typeE.exit, label %_ZSteqIcSt11char_traitsIcEEbSt17basic_string_viewIT_T0_ENSt15__type_identityIS5_E4typeE.exit20.thread

_ZSteqIcSt11char_traitsIcEEbSt17basic_string_viewIT_T0_ENSt15__type_identityIS5_E4typeE.exit20.thread: ; preds = %_ZNSt11char_traitsIcE7compareEPKcS2_m.exit.i.i, %_ZNK3nix5Value4typeEb.exit14, %_ZNSt11char_traitsIcE7compareEPKcS2_m.exit.i.i17
  br label %_ZSteqIcSt11char_traitsIcEEbSt17basic_string_viewIT_T0_ENSt15__type_identityIS5_E4typeE.exit

_ZSteqIcSt11char_traitsIcEEbSt17basic_string_viewIT_T0_ENSt15__type_identityIS5_E4typeE.exit: ; preds = %5, %5, %5, %5, %5, %5, %5, %5, %5, %5, %5, %5, %5, %5, %_ZSteqIcSt11char_traitsIcEEbSt17basic_string_viewIT_T0_ENSt15__type_identityIS5_E4typeE.exit20.thread, %_ZNSt11char_traitsIcE7compareEPKcS2_m.exit.i.i17, %_ZNSt11char_traitsIcE7compareEPKcS2_m.exit.i.i, %3, %_ZNK3nix5Value4typeEb.exit
  %.0 = phi i1 [ %11, %_ZNK3nix5Value4typeEb.exit ], [ %2, %3 ], [ true, %_ZNSt11char_traitsIcE7compareEPKcS2_m.exit.i.i ], [ false, %_ZNSt11char_traitsIcE7compareEPKcS2_m.exit.i.i17 ], [ %2, %_ZSteqIcSt11char_traitsIcEEbSt17basic_string_viewIT_T0_ENSt15__type_identityIS5_E4typeE.exit20.thread ], [ %2, %5 ], [ %2, %5 ], [ %2, %5 ], [ %2, %5 ], [ %2, %5 ], [ %2, %5 ], [ %2, %5 ], [ %2, %5 ], [ %2, %5 ], [ %2, %5 ], [ %2, %5 ], [ %2, %5 ], [ %2, %5 ], [ %2, %5 ]
  ret i1 %.0
}